; Function Attrs: null_pointer_is_valid sspstrong uwtable
define internal noundef i32 @zbee_nwk_endpoint_packet(ptr noundef initializes((24, 28)) %0, ptr noundef %1, ptr readnone captures(none) %2, ptr readnone captures(none) %3, i32 noundef %4) #1 {
  %6 = getelementptr inbounds nuw i8, ptr %0, i64 24
  store i32 %4, ptr %6, align 8
  %7 = getelementptr inbounds nuw i8, ptr %1, i64 160
  %8 = getelementptr inbounds nuw i8, ptr %1, i64 80
  %9 = load ptr, ptr %8, align 8
  %10 = getelementptr inbounds nuw i8, ptr %9, i64 8
  %11 = load i32, ptr %10, align 8
  tail call void @add_endpoint_table_data(ptr noundef %0, ptr noundef nonnull %7, i32 noundef 0, i1 noundef zeroext true, i32 noundef 1, i32 noundef %11, ptr noundef nonnull @zbee_nwk_endpoint_dissector_info, i32 noundef 0)
  %12 = getelementptr inbounds nuw i8, ptr %1, i64 184
  %13 = load ptr, ptr %8, align 8
  %14 = getelementptr inbounds nuw i8, ptr %13, i64 8
  %15 = load i32, ptr %14, align 8
  tail call void @add_endpoint_table_data(ptr noundef %0, ptr noundef nonnull %12, i32 noundef 0, i1 noundef zeroext false, i32 noundef 1, i32 noundef %15, ptr noundef nonnull @zbee_nwk_endpoint_dissector_info, i32 noundef 0)
  ret i32 1
}